target datalayout = "e-m:e-p270:32:32-p271:32:32-p272:64:64-i64:64-i128:128-f80:128-n8:16:32:64-S128"
target triple = "x86_64-pc-linux-gnu"

%class.QPointer = type { %class.QWeakPointer }
%class.QWeakPointer = type { ptr, ptr }
%class.QString = type { %struct.QArrayDataPointer }
%struct.QArrayDataPointer = type { ptr, ptr, i64 }
%class.QVariant = type { %"struct.QVariant::Private" }
%"struct.QVariant::Private" = type { %union.anon, i64 }
%union.anon = type { ptr, [16 x i8] }
%class.QSharedPointer = type { ptr, ptr }
%struct.QLatin1Char = type { i8 }
%class.IOGraphDialog = type { %class.WiresharkDialog.base, ptr, ptr, %class.QPointer, ptr, %class.QList.5, %class.QString, ptr, ptr, i32, %struct.nstime_t, i8, ptr, %class.QPoint, %class.QMenu, ptr, i8, i8, i8, i8, i32, %class.QSharedPointer, %class.QSharedPointer.9 }
%class.WiresharkDialog.base = type <{ %class.GeometryStateDialog, ptr, i8, [7 x i8], %class.QString, %class.QList.1, i32, i8 }>
%class.GeometryStateDialog = type { %class.QDialog, %class.QString, ptr }
%class.QDialog = type { %class.QWidget }
%class.QWidget = type { %class.QObject, %class.QPaintDevice.base, ptr }
%class.QObject = type { ptr, %class.QScopedPointer }
%class.QScopedPointer = type { ptr }
%class.QPaintDevice.base = type <{ ptr, i16 }>
%class.QList.1 = type { %struct.QArrayDataPointer.4 }
%struct.QArrayDataPointer.4 = type { ptr, ptr, i64 }
%class.QList.5 = type { %struct.QArrayDataPointer.8 }
%struct.QArrayDataPointer.8 = type { ptr, ptr, i64 }
%struct.nstime_t = type { i64, i32 }
%class.QPoint = type { i32, i32 }
%class.QMenu = type { %class.QWidget }
%class.QSharedPointer.9 = type { ptr, ptr }
%class.Ui_IOGraphDialog = type { ptr, ptr, ptr, ptr, ptr, ptr, ptr, ptr, ptr, ptr, ptr, ptr, ptr, ptr, ptr, ptr, ptr, ptr, ptr, ptr, ptr, ptr, ptr, ptr, ptr, ptr, ptr, ptr, ptr, ptr, ptr, ptr, ptr, ptr, ptr, ptr, ptr, ptr, ptr, ptr, ptr, ptr, ptr, ptr, ptr, ptr }
%class.QCustomPlot = type <{ %class.QWidget, ptr, ptr, ptr, ptr, ptr, %class.QRect, double, ptr, i8, [7 x i8], %class.QList.10, %class.QList.14, %class.QList.18, %class.QList.22, %class.QFlags, %class.QFlags, %class.QFlags.26, i32, i8, [7 x i8], %class.QBrush, %class.QPixmap, %class.QPixmap, i8, [3 x i8], i32, ptr, %class.QFlags.29, i32, i32, [4 x i8], ptr, i8, [7 x i8], %class.QList.30, %class.QPoint, i8, [7 x i8], %class.QPointer.34, %class.QPointer.34, %class.QVariant, %class.QVariant, i8, i8, [6 x i8], double, double, i32, %class.QFlags, i8, [7 x i8] }>
%class.QRect = type { i32, i32, i32, i32 }
%class.QList.10 = type { %struct.QArrayDataPointer.13 }
%struct.QArrayDataPointer.13 = type { ptr, ptr, i64 }
%class.QList.14 = type { %struct.QArrayDataPointer.17 }
%struct.QArrayDataPointer.17 = type { ptr, ptr, i64 }
%class.QList.18 = type { %struct.QArrayDataPointer.21 }
%struct.QArrayDataPointer.21 = type { ptr, ptr, i64 }
%class.QList.22 = type { %struct.QArrayDataPointer.25 }
%struct.QArrayDataPointer.25 = type { ptr, ptr, i64 }
%class.QFlags.26 = type { i32 }
%class.QBrush = type { %"class.std::unique_ptr" }
%"class.std::unique_ptr" = type { %"struct.std::__uniq_ptr_data" }
%"struct.std::__uniq_ptr_data" = type { %"class.std::__uniq_ptr_impl" }
%"class.std::__uniq_ptr_impl" = type { %"class.std::tuple" }
%"class.std::tuple" = type { %"struct.std::_Tuple_impl" }
%"struct.std::_Tuple_impl" = type { %"struct.std::_Head_base.28" }
%"struct.std::_Head_base.28" = type { ptr }
%class.QPixmap = type { %class.QPaintDevice.base, %class.QExplicitlySharedDataPointer }
%class.QExplicitlySharedDataPointer = type { ptr }
%class.QFlags.29 = type { i32 }
%class.QList.30 = type { %struct.QArrayDataPointer.33 }
%struct.QArrayDataPointer.33 = type { ptr, ptr, i64 }
%class.QPointer.34 = type { %class.QWeakPointer }
%class.QFlags = type { i32 }
%class.QList = type { %struct.QArrayDataPointer.0 }
%struct.QArrayDataPointer.0 = type { ptr, ptr, i64 }
%class.QColor = type <{ i32, %"union.QColor::CT", [2 x i8] }>
%"union.QColor::CT" = type { %struct.anon }
%struct.anon = type { i16, i16, i16, i16, i16 }
%class.QPen = type { ptr }
%class.QCPLayerable.base = type <{ %class.QObject, i8, [7 x i8], ptr, %class.QPointer.34, ptr, i8 }>
%class.QCPRange = type { double, double }
%class.QCPAxis = type { %class.QCPLayerable.base, i32, ptr, i32, i32, %class.QFlags.35, %class.QFlags.35, %class.QPen, %class.QPen, %class.QString, %class.QFont, %class.QFont, %class.QColor, %class.QColor, i8, [7 x i8], %class.QFont, %class.QFont, %class.QColor, %class.QColor, i32, %struct.QLatin1Char, i8, i8, i8, %class.QPen, %class.QPen, %class.QPen, %class.QPen, %class.QCPRange, i8, i32, ptr, ptr, %class.QSharedPointer, %class.QList.41, %class.QList, %class.QList.41, i8, i32, i8, %class.QCPRange, %class.QFlags, %class.QFlags }
%class.QFlags.35 = type { i32 }
%class.QFont = type <{ %class.QExplicitlySharedDataPointer.36, i32, [4 x i8] }>
%class.QExplicitlySharedDataPointer.36 = type { ptr }
%class.QList.41 = type { %struct.QArrayDataPointer.44 }
%struct.QArrayDataPointer.44 = type { ptr, ptr, i64 }
%class.QCPLayoutElement = type { %class.QCPLayerable.base, ptr, %class.QSize, %class.QSize, i32, %class.QRect, %class.QRect, %class.QMargins, %class.QMargins, %class.QFlags.49, %class.QHash }
%class.QSize = type { i32, i32 }
%class.QMargins = type { i32, i32, i32, i32 }
%class.QFlags.49 = type { i32 }
%class.QHash = type { ptr }

; Function Attrs: inlinehint mustprogress nounwind null_pointer_is_valid sspstrong uwtable
define linkonce_odr noundef i32 @_ZNK5QRect6heightEv(ptr noundef align 4 dereferenceable_or_null(16) %0) #1 comdat align 2 {
  %2 = alloca ptr, align 8
  store ptr %0, ptr %2, align 8
  %3 = load ptr, ptr %2, align 8
  %4 = getelementptr inbounds nuw %class.QRect, ptr %3, i32 0, i32 3
  %5 = load i32, ptr %4, align 4
  %6 = getelementptr inbounds nuw %class.QRect, ptr %3, i32 0, i32 1
  %7 = load i32, ptr %6, align 4
  %8 = sub i32 %5, %7
  %9 = add i32 %8, 1
  ret i32 %9
}

; Function Attrs: inlinehint mustprogress nounwind null_pointer_is_valid sspstrong uwtable
define linkonce_odr noundef i32 @_ZNK5QRect5widthEv(ptr noundef align 4 dereferenceable_or_null(16) %0) #1 comdat align 2 {
  %2 = alloca ptr, align 8
  store ptr %0, ptr %2, align 8
  %3 = load ptr, ptr %2, align 8
  %4 = getelementptr inbounds nuw %class.QRect, ptr %3, i32 0, i32 2
  %5 = load i32, ptr %4, align 4
  %6 = getelementptr inbounds nuw %class.QRect, ptr %3, i32 0, i32 0
  %7 = load i32, ptr %6, align 4
  %8 = sub i32 %5, %7
  %9 = add i32 %8, 1
  ret i32 %9
}

; Function Attrs: mustprogress nounwind null_pointer_is_valid sspstrong uwtable
define linkonce_odr noundef i32 @_ZNK11QCPAxisRect6heightEv(ptr noundef align 8 dereferenceable_or_null(432) %0) #7 comdat align 2 {
  %2 = alloca ptr, align 8
  store ptr %0, ptr %2, align 8
  %3 = load ptr, ptr %2, align 8
  %4 = getelementptr inbounds nuw %class.QCPLayoutElement, ptr %3, i32 0, i32 5
  %5 = call noundef i32 @_ZNK5QRect6heightEv(ptr noundef align 4 dereferenceable_or_null(16) %4) #2
  ret i32 %5
}

; Function Attrs: mustprogress nounwind null_pointer_is_valid sspstrong uwtable
define linkonce_odr noundef double @_ZNK8QCPRange6centerEv(ptr noundef align 8 dereferenceable_or_null(16) %0) #7 comdat align 2 {
  %2 = alloca ptr, align 8
  store ptr %0, ptr %2, align 8
  %3 = load ptr, ptr %2, align 8
  %4 = getelementptr inbounds nuw %class.QCPRange, ptr %3, i32 0, i32 1
  %5 = load double, ptr %4, align 8
  %6 = getelementptr inbounds nuw %class.QCPRange, ptr %3, i32 0, i32 0
  %7 = load double, ptr %6, align 8
  %8 = fadd double %5, %7
  %9 = fmul double %8, 5.000000e-01
  ret double %9
}

; Function Attrs: mustprogress nounwind null_pointer_is_valid sspstrong uwtable
define linkonce_odr noundef i32 @_ZNK11QCPAxisRect5widthEv(ptr noundef align 8 dereferenceable_or_null(432) %0) #7 comdat align 2 {
  %2 = alloca ptr, align 8
  store ptr %0, ptr %2, align 8
  %3 = load ptr, ptr %2, align 8
  %4 = getelementptr inbounds nuw %class.QCPLayoutElement, ptr %3, i32 0, i32 5
  %5 = call noundef i32 @_ZNK5QRect5widthEv(ptr noundef align 4 dereferenceable_or_null(16) %4) #2
  ret i32 %5
}

; Function Attrs: mustprogress nounwind null_pointer_is_valid sspstrong uwtable
define linkonce_odr noundef ptr @_ZNK7QCPAxis8axisRectEv(ptr noundef align 8 dereferenceable_or_null(472) %0) #7 comdat align 2 {
  %2 = alloca ptr, align 8
  store ptr %0, ptr %2, align 8
  %3 = load ptr, ptr %2, align 8
  %4 = getelementptr inbounds nuw %class.QCPAxis, ptr %3, i32 0, i32 2
  %5 = load ptr, ptr %4, align 8
  ret ptr %5
}

; Function Attrs: mustprogress nounwind null_pointer_is_valid sspstrong uwtable
define linkonce_odr { double, double } @_ZNK7QCPAxis5rangeEv(ptr noundef align 8 dereferenceable_or_null(472) %0) #7 comdat align 2 {
  %2 = alloca %class.QCPRange, align 8
  %3 = alloca ptr, align 8
  store ptr %0, ptr %3, align 8
  %4 = load ptr, ptr %3, align 8
  %5 = getelementptr inbounds nuw %class.QCPAxis, ptr %4, i32 0, i32 29
  call void @llvm.memcpy.p0.p0.i64(ptr align 8 %2, ptr align 8 %5, i64 16, i1 false)
  %6 = load { double, double }, ptr %2, align 8
  ret { double, double } %6
}

; Function Attrs: mustprogress nounwind null_pointer_is_valid sspstrong uwtable
define linkonce_odr noundef i32 @_ZNK7QCPAxis9scaleTypeEv(ptr noundef align 8 dereferenceable_or_null(472) %0) #7 comdat align 2 {
  %2 = alloca ptr, align 8
  store ptr %0, ptr %2, align 8
  %3 = load ptr, ptr %2, align 8
  %4 = getelementptr inbounds nuw %class.QCPAxis, ptr %3, i32 0, i32 31
  %5 = load i32, ptr %4, align 4
  ret i32 %5
}

; Function Attrs: mustprogress null_pointer_is_valid sspstrong uwtable
define void @_ZN13IOGraphDialog9resetAxesEv(ptr noundef align 8 dereferenceable_or_null(384) %0) #3 align 2 {
  %2 = alloca ptr, align 8
  %3 = alloca ptr, align 8
  %4 = alloca double, align 8
  %5 = alloca %class.QCPRange, align 8
  %6 = alloca %class.QCPRange, align 8
  %7 = alloca double, align 8
  %8 = alloca %class.QCPRange, align 8
  %9 = alloca %class.QCPRange, align 8
  store ptr %0, ptr %2, align 8
  %10 = load ptr, ptr %2, align 8
  call void @llvm.lifetime.start.p0(i64 8, ptr %3) #2
  %11 = getelementptr inbounds nuw %class.IOGraphDialog, ptr %10, i32 0, i32 1
  %12 = load ptr, ptr %11, align 8
  %13 = getelementptr inbounds nuw %class.Ui_IOGraphDialog, ptr %12, i32 0, i32 26
  %14 = load ptr, ptr %13, align 8
  store ptr %14, ptr %3, align 8
  call void @llvm.lifetime.start.p0(i64 8, ptr %4) #2
  store double 1.000000e+01, ptr %4, align 8
  %15 = load ptr, ptr %3, align 8
  call void @_ZN11QCustomPlot11rescaleAxesEb(ptr noundef align 8 dereferenceable_or_null(513) %15, i1 noundef zeroext true)
  call void @llvm.lifetime.start.p0(i64 16, ptr %5) #2
  %16 = load ptr, ptr %3, align 8
  %17 = getelementptr inbounds nuw %class.QCustomPlot, ptr %16, i32 0, i32 1
  %18 = load ptr, ptr %17, align 8
  %19 = call noundef i32 @_ZNK7QCPAxis9scaleTypeEv(ptr noundef align 8 dereferenceable_or_null(472) %18)
  %20 = icmp eq i32 %19, 1
  call void @llvm.lifetime.start.p0(i64 16, ptr %6) #2
  br i1 %20, label %21, label %35

21:                                               ; preds = %1
  %22 = load ptr, ptr %3, align 8
  %23 = getelementptr inbounds nuw %class.QCustomPlot, ptr %22, i32 0, i32 1
  %24 = load ptr, ptr %23, align 8
  %25 = call { double, double } @_ZNK7QCPAxis5rangeEv(ptr noundef align 8 dereferenceable_or_null(472) %24)
  %26 = getelementptr inbounds nuw { double, double }, ptr %6, i32 0, i32 0
  %27 = extractvalue { double, double } %25, 0
  store double %27, ptr %26, align 8
  %28 = getelementptr inbounds nuw { double, double }, ptr %6, i32 0, i32 1
  %29 = extractvalue { double, double } %25, 1
  store double %29, ptr %28, align 8
  %30 = call { double, double } @_ZNK8QCPRange20sanitizedForLogScaleEv(ptr noundef align 8 dereferenceable_or_null(16) %6)
  %31 = getelementptr inbounds nuw { double, double }, ptr %5, i32 0, i32 0
  %32 = extractvalue { double, double } %30, 0
  store double %32, ptr %31, align 8
  %33 = getelementptr inbounds nuw { double, double }, ptr %5, i32 0, i32 1
  %34 = extractvalue { double, double } %30, 1
  store double %34, ptr %33, align 8
  br label %44

35:                                               ; preds = %1
  %36 = load ptr, ptr %3, align 8
  %37 = getelementptr inbounds nuw %class.QCustomPlot, ptr %36, i32 0, i32 1
  %38 = load ptr, ptr %37, align 8
  %39 = call { double, double } @_ZNK7QCPAxis5rangeEv(ptr noundef align 8 dereferenceable_or_null(472) %38)
  %40 = getelementptr inbounds nuw { double, double }, ptr %5, i32 0, i32 0
  %41 = extractvalue { double, double } %39, 0
  store double %41, ptr %40, align 8
  %42 = getelementptr inbounds nuw { double, double }, ptr %5, i32 0, i32 1
  %43 = extractvalue { double, double } %39, 1
  store double %43, ptr %42, align 8
  br label %44

44:                                               ; preds = %35, %21
  call void @llvm.lifetime.end.p0(i64 16, ptr %6) #2
  call void @llvm.lifetime.start.p0(i64 8, ptr %7) #2
  %45 = load ptr, ptr %3, align 8
  %46 = getelementptr inbounds nuw %class.QCustomPlot, ptr %45, i32 0, i32 1
  %47 = load ptr, ptr %46, align 8
  %48 = call noundef ptr @_ZNK7QCPAxis8axisRectEv(ptr noundef align 8 dereferenceable_or_null(472) %47)
  %49 = call noundef i32 @_ZNK11QCPAxisRect5widthEv(ptr noundef align 8 dereferenceable_or_null(432) %48)
  %50 = sitofp i32 %49 to double
  store double %50, ptr %7, align 8
  %51 = load ptr, ptr %3, align 8
  %52 = getelementptr inbounds nuw %class.QCustomPlot, ptr %51, i32 0, i32 1
  %53 = load ptr, ptr %52, align 8
  %54 = load double, ptr %7, align 8
  %55 = load double, ptr %4, align 8
  %56 = call double @llvm.fmuladd.f64(double %55, double 2.000000e+00, double %54)
  %57 = load double, ptr %7, align 8
  %58 = fdiv double %56, %57
  %59 = call noundef double @_ZNK8QCPRange6centerEv(ptr noundef align 8 dereferenceable_or_null(16) %5)
  call void @_ZN7QCPAxis10scaleRangeEdd(ptr noundef align 8 dereferenceable_or_null(472) %53, double noundef %58, double noundef %59)
  call void @llvm.lifetime.start.p0(i64 16, ptr %8) #2
  %60 = load ptr, ptr %3, align 8
  %61 = getelementptr inbounds nuw %class.QCustomPlot, ptr %60, i32 0, i32 2
  %62 = load ptr, ptr %61, align 8
  %63 = call noundef i32 @_ZNK7QCPAxis9scaleTypeEv(ptr noundef align 8 dereferenceable_or_null(472) %62)
  %64 = icmp eq i32 %63, 1
  call void @llvm.lifetime.start.p0(i64 16, ptr %9) #2
  br i1 %64, label %65, label %79

65:                                               ; preds = %44
  %66 = load ptr, ptr %3, align 8
  %67 = getelementptr inbounds nuw %class.QCustomPlot, ptr %66, i32 0, i32 2
  %68 = load ptr, ptr %67, align 8
  %69 = call { double, double } @_ZNK7QCPAxis5rangeEv(ptr noundef align 8 dereferenceable_or_null(472) %68)
  %70 = getelementptr inbounds nuw { double, double }, ptr %9, i32 0, i32 0
  %71 = extractvalue { double, double } %69, 0
  store double %71, ptr %70, align 8
  %72 = getelementptr inbounds nuw { double, double }, ptr %9, i32 0, i32 1
  %73 = extractvalue { double, double } %69, 1
  store double %73, ptr %72, align 8
  %74 = call { double, double } @_ZNK8QCPRange20sanitizedForLogScaleEv(ptr noundef align 8 dereferenceable_or_null(16) %9)
  %75 = getelementptr inbounds nuw { double, double }, ptr %8, i32 0, i32 0
  %76 = extractvalue { double, double } %74, 0
  store double %76, ptr %75, align 8
  %77 = getelementptr inbounds nuw { double, double }, ptr %8, i32 0, i32 1
  %78 = extractvalue { double, double } %74, 1
  store double %78, ptr %77, align 8
  br label %88

79:                                               ; preds = %44
  %80 = load ptr, ptr %3, align 8
  %81 = getelementptr inbounds nuw %class.QCustomPlot, ptr %80, i32 0, i32 2
  %82 = load ptr, ptr %81, align 8
  %83 = call { double, double } @_ZNK7QCPAxis5rangeEv(ptr noundef align 8 dereferenceable_or_null(472) %82)
  %84 = getelementptr inbounds nuw { double, double }, ptr %8, i32 0, i32 0
  %85 = extractvalue { double, double } %83, 0
  store double %85, ptr %84, align 8
  %86 = getelementptr inbounds nuw { double, double }, ptr %8, i32 0, i32 1
  %87 = extractvalue { double, double } %83, 1
  store double %87, ptr %86, align 8
  br label %88

88:                                               ; preds = %79, %65
  call void @llvm.lifetime.end.p0(i64 16, ptr %9) #2
  %89 = load ptr, ptr %3, align 8
  %90 = getelementptr inbounds nuw %class.QCustomPlot, ptr %89, i32 0, i32 2
  %91 = load ptr, ptr %90, align 8
  %92 = call noundef ptr @_ZNK7QCPAxis8axisRectEv(ptr noundef align 8 dereferenceable_or_null(472) %91)
  %93 = call noundef i32 @_ZNK11QCPAxisRect6heightEv(ptr noundef align 8 dereferenceable_or_null(432) %92)
  %94 = sitofp i32 %93 to double
  store double %94, ptr %7, align 8
  %95 = load ptr, ptr %3, align 8
  %96 = getelementptr inbounds nuw %class.QCustomPlot, ptr %95, i32 0, i32 2
  %97 = load ptr, ptr %96, align 8
  %98 = load double, ptr %7, align 8
  %99 = load double, ptr %4, align 8
  %100 = call double @llvm.fmuladd.f64(double %99, double 2.000000e+00, double %98)
  %101 = load double, ptr %7, align 8
  %102 = fdiv double %100, %101
  %103 = call noundef double @_ZNK8QCPRange6centerEv(ptr noundef align 8 dereferenceable_or_null(16) %8)
  call void @_ZN7QCPAxis10scaleRangeEdd(ptr noundef align 8 dereferenceable_or_null(472) %97, double noundef %102, double noundef %103)
  %104 = getelementptr inbounds nuw %class.IOGraphDialog, ptr %10, i32 0, i32 19
  store i8 1, ptr %104, align 1
  %105 = load ptr, ptr %3, align 8
  call void @_ZN11QCustomPlot6replotENS_15RefreshPriorityE(ptr noundef align 8 dereferenceable_or_null(513) %105, i32 noundef 2)
  call void @llvm.lifetime.end.p0(i64 16, ptr %8) #2
  call void @llvm.lifetime.end.p0(i64 8, ptr %7) #2
  call void @llvm.lifetime.end.p0(i64 16, ptr %5) #2
  call void @llvm.lifetime.end.p0(i64 8, ptr %4) #2
  call void @llvm.lifetime.end.p0(i64 8, ptr %3) #2
  ret void
}