; Function Attrs: mustprogress null_pointer_is_valid sspstrong uwtable
define void @_ZN13IOGraphDialog9resetAxesEv(ptr noundef align 8 captures(none) dereferenceable_or_null(384) initializes((347, 348)) %0) local_unnamed_addr #2 align 2 {
  %2 = alloca %class.QCPRange, align 8
  %3 = alloca %class.QCPRange, align 8
  %4 = getelementptr inbounds nuw i8, ptr %0, i64 144
  %5 = load ptr, ptr %4, align 8
  %6 = getelementptr inbounds nuw i8, ptr %5, i64 208
  %7 = load ptr, ptr %6, align 8
  tail call void @_ZN11QCustomPlot11rescaleAxesEb(ptr noundef align 8 dereferenceable_or_null(513) %7, i1 noundef zeroext true)
  %8 = getelementptr inbounds nuw i8, ptr %7, i64 40
  %9 = load ptr, ptr %8, align 8
  %10 = getelementptr inbounds nuw i8, ptr %9, i64 324
  %11 = load i32, ptr %10, align 4
  %12 = icmp eq i32 %11, 1
  call void @llvm.lifetime.start.p0(i64 16, ptr nonnull %2) #33
  %13 = getelementptr inbounds nuw i8, ptr %9, i64 304
  %.sroa.0.0.copyload.i = load double, ptr %13, align 8
  %.sroa.2.0..sroa_idx.i = getelementptr inbounds nuw i8, ptr %9, i64 312
  %.sroa.2.0.copyload.i = load double, ptr %.sroa.2.0..sroa_idx.i, align 8
  br i1 %12, label %14, label %19

14:                                               ; preds = %1
  store double %.sroa.0.0.copyload.i, ptr %2, align 8
  %15 = getelementptr inbounds nuw i8, ptr %2, i64 8
  store double %.sroa.2.0.copyload.i, ptr %15, align 8
  %16 = call { double, double } @_ZNK8QCPRange20sanitizedForLogScaleEv(ptr noundef nonnull align 8 dereferenceable_or_null(16) %2)
  %17 = extractvalue { double, double } %16, 0
  %18 = extractvalue { double, double } %16, 1
  %.pre = load ptr, ptr %8, align 8
  br label %19

19:                                               ; preds = %1, %14
  %20 = phi ptr [ %.pre, %14 ], [ %9, %1 ]
  %.sroa.535.0 = phi double [ %18, %14 ], [ %.sroa.2.0.copyload.i, %1 ]
  %.sroa.034.0 = phi double [ %17, %14 ], [ %.sroa.0.0.copyload.i, %1 ]
  call void @llvm.lifetime.end.p0(i64 16, ptr nonnull %2) #33
  %21 = getelementptr inbounds nuw i8, ptr %20, i64 64
  %22 = load ptr, ptr %21, align 8
  %23 = getelementptr inbounds nuw i8, ptr %22, i64 92
  %24 = getelementptr inbounds nuw i8, ptr %22, i64 100
  %25 = load i32, ptr %24, align 4
  %26 = load i32, ptr %23, align 4
  %27 = add i32 %25, 1
  %28 = sub i32 %27, %26
  %29 = sitofp i32 %28 to double
  %30 = fadd double %29, 2.000000e+01
  %31 = fdiv double %30, %29
  %32 = fadd double %.sroa.535.0, %.sroa.034.0
  %33 = fmul double %32, 5.000000e-01
  call void @_ZN7QCPAxis10scaleRangeEdd(ptr noundef align 8 dereferenceable_or_null(472) %20, double noundef %31, double noundef %33)
  %34 = getelementptr inbounds nuw i8, ptr %7, i64 48
  %35 = load ptr, ptr %34, align 8
  %36 = getelementptr inbounds nuw i8, ptr %35, i64 324
  %37 = load i32, ptr %36, align 4
  %38 = icmp eq i32 %37, 1
  call void @llvm.lifetime.start.p0(i64 16, ptr nonnull %3) #33
  %39 = getelementptr inbounds nuw i8, ptr %35, i64 304
  %.sroa.0.0.copyload.i24 = load double, ptr %39, align 8
  %.sroa.2.0..sroa_idx.i25 = getelementptr inbounds nuw i8, ptr %35, i64 312
  %.sroa.2.0.copyload.i26 = load double, ptr %.sroa.2.0..sroa_idx.i25, align 8
  br i1 %38, label %40, label %45

40:                                               ; preds = %19
  store double %.sroa.0.0.copyload.i24, ptr %3, align 8
  %41 = getelementptr inbounds nuw i8, ptr %3, i64 8
  store double %.sroa.2.0.copyload.i26, ptr %41, align 8
  %42 = call { double, double } @_ZNK8QCPRange20sanitizedForLogScaleEv(ptr noundef nonnull align 8 dereferenceable_or_null(16) %3)
  %43 = extractvalue { double, double } %42, 0
  %44 = extractvalue { double, double } %42, 1
  %.pre37 = load ptr, ptr %34, align 8
  br label %45

45:                                               ; preds = %19, %40
  %46 = phi ptr [ %.pre37, %40 ], [ %35, %19 ]
  %.sroa.5.0 = phi double [ %44, %40 ], [ %.sroa.2.0.copyload.i26, %19 ]
  %.sroa.0.0 = phi double [ %43, %40 ], [ %.sroa.0.0.copyload.i24, %19 ]
  call void @llvm.lifetime.end.p0(i64 16, ptr nonnull %3) #33
  %47 = getelementptr inbounds nuw i8, ptr %46, i64 64
  %48 = load ptr, ptr %47, align 8
  %49 = getelementptr inbounds nuw i8, ptr %48, i64 104
  %50 = load i32, ptr %49, align 4
  %51 = getelementptr inbounds nuw i8, ptr %48, i64 96
  %52 = load i32, ptr %51, align 4
  %53 = add i32 %50, 1
  %54 = sub i32 %53, %52
  %55 = sitofp i32 %54 to double
  %56 = fadd double %55, 2.000000e+01
  %57 = fdiv double %56, %55
  %58 = fadd double %.sroa.5.0, %.sroa.0.0
  %59 = fmul double %58, 5.000000e-01
  call void @_ZN7QCPAxis10scaleRangeEdd(ptr noundef align 8 dereferenceable_or_null(472) %46, double noundef %57, double noundef %59)
  %60 = getelementptr inbounds nuw i8, ptr %0, i64 347
  store i8 1, ptr %60, align 1
  call void @_ZN11QCustomPlot6replotENS_15RefreshPriorityE(ptr noundef align 8 dereferenceable_or_null(513) %7, i32 noundef 2)
  ret void
}